target datalayout = "e-m:e-p270:32:32-p271:32:32-p272:64:64-i64:64-i128:128-f80:128-n8:16:32:64-S128"
target triple = "x86_64-pc-linux-gnu"

%"class.std::vector.7" = type { %"struct.std::_Vector_base.8" }
%"struct.std::_Vector_base.8" = type { %"struct.std::_Vector_base<unsigned int, std::allocator<unsigned int>>::_Vector_impl" }
%"struct.std::_Vector_base<unsigned int, std::allocator<unsigned int>>::_Vector_impl" = type { %"struct.std::_Vector_base<unsigned int, std::allocator<unsigned int>>::_Vector_impl_data" }
%"struct.std::_Vector_base<unsigned int, std::allocator<unsigned int>>::_Vector_impl_data" = type { ptr, ptr, ptr }
%"class.cv::line_descriptor::BinaryDescriptorMatcher::BucketGroup" = type { i32, %"class.std::vector.7" }

; Function Attrs: mustprogress nounwind uwtable
define linkonce_odr hidden noundef nonnull align 4 dereferenceable(4) ptr @_ZNSt6vectorIjSaIjEEixEm(ptr noundef nonnull align 8 dereferenceable(24) %0, i64 noundef %1) #5 comdat align 2 {
  %3 = alloca ptr, align 8
  %4 = alloca i64, align 8
  store ptr %0, ptr %3, align 8, !tbaa !185
  store i64 %1, ptr %4, align 8, !tbaa !49
  %5 = load ptr, ptr %3, align 8
  %6 = getelementptr inbounds nuw %"struct.std::_Vector_base.8", ptr %5, i32 0, i32 0
  %7 = getelementptr inbounds nuw %"struct.std::_Vector_base<unsigned int, std::allocator<unsigned int>>::_Vector_impl_data", ptr %6, i32 0, i32 0
  %8 = load ptr, ptr %7, align 8, !tbaa !187
  %9 = load i64, ptr %4, align 8, !tbaa !49
  %10 = getelementptr inbounds nuw i32, ptr %8, i64 %9
  ret ptr %10
}

; Function Attrs: mustprogress nounwind uwtable
define linkonce_odr hidden noundef i64 @_ZNKSt6vectorIjSaIjEE4sizeEv(ptr noundef nonnull align 8 dereferenceable(24) %0) #5 comdat align 2 {
  %2 = alloca ptr, align 8
  store ptr %0, ptr %2, align 8, !tbaa !185
  %3 = load ptr, ptr %2, align 8
  %4 = getelementptr inbounds nuw %"struct.std::_Vector_base.8", ptr %3, i32 0, i32 0
  %5 = getelementptr inbounds nuw %"struct.std::_Vector_base<unsigned int, std::allocator<unsigned int>>::_Vector_impl_data", ptr %4, i32 0, i32 1
  %6 = load ptr, ptr %5, align 8, !tbaa !197
  %7 = getelementptr inbounds nuw %"struct.std::_Vector_base.8", ptr %3, i32 0, i32 0
  %8 = getelementptr inbounds nuw %"struct.std::_Vector_base<unsigned int, std::allocator<unsigned int>>::_Vector_impl_data", ptr %7, i32 0, i32 0
  %9 = load ptr, ptr %8, align 8, !tbaa !187
  %10 = ptrtoint ptr %6 to i64
  %11 = ptrtoint ptr %9 to i64
  %12 = sub i64 %10, %11
  %13 = sdiv exact i64 %12, 4
  ret i64 %13
}

; Function Attrs: mustprogress uwtable
define void @_ZN2cv15line_descriptor23BinaryDescriptorMatcher11BucketGroup6insertEij(ptr noundef nonnull align 8 dereferenceable(32) %0, i32 noundef %1, i32 noundef %2) #4 align 2 {
  %4 = alloca ptr, align 8
  %5 = alloca i32, align 4
  %6 = alloca i32, align 4
  %7 = alloca i32, align 4
  %8 = alloca i32, align 4
  %9 = alloca i32, align 4
  %10 = alloca i32, align 4
  store ptr %0, ptr %4, align 8, !tbaa !203
  store i32 %1, ptr %5, align 4, !tbaa !60
  store i32 %2, ptr %6, align 4, !tbaa !60
  %11 = load ptr, ptr %4, align 8
  %12 = getelementptr inbounds nuw %"class.cv::line_descriptor::BinaryDescriptorMatcher::BucketGroup", ptr %11, i32 0, i32 1
  %13 = call noundef i64 @_ZNKSt6vectorIjSaIjEE4sizeEv(ptr noundef nonnull align 8 dereferenceable(24) %12) #3
  %14 = icmp eq i64 %13, 0
  br i1 %14, label %15, label %17

15:                                               ; preds = %3
  %16 = getelementptr inbounds nuw %"class.cv::line_descriptor::BinaryDescriptorMatcher::BucketGroup", ptr %11, i32 0, i32 1
  call void @_ZN2cv15line_descriptor23BinaryDescriptorMatcher11BucketGroup10push_valueERSt6vectorIjSaIjEEj(ptr noundef nonnull align 8 dereferenceable(32) %11, ptr noundef nonnull align 8 dereferenceable(24) %16, i32 noundef 0)
  br label %17

17:                                               ; preds = %15, %3
  call void @llvm.lifetime.start.p0(i64 4, ptr %7) #3
  %18 = load i32, ptr %5, align 4, !tbaa !60
  %19 = shl i32 1, %18
  %20 = sub i32 %19, 1
  store i32 %20, ptr %7, align 4, !tbaa !60
  call void @llvm.lifetime.start.p0(i64 4, ptr %8) #3
  %21 = getelementptr inbounds nuw %"class.cv::line_descriptor::BinaryDescriptorMatcher::BucketGroup", ptr %11, i32 0, i32 0
  %22 = load i32, ptr %21, align 8, !tbaa !208
  %23 = load i32, ptr %7, align 4, !tbaa !60
  %24 = and i32 %22, %23
  %25 = call i32 @llvm.ctpop.i32(i32 %24)
  store i32 %25, ptr %8, align 4, !tbaa !60
  %26 = getelementptr inbounds nuw %"class.cv::line_descriptor::BinaryDescriptorMatcher::BucketGroup", ptr %11, i32 0, i32 0
  %27 = load i32, ptr %26, align 8, !tbaa !208
  %28 = load i32, ptr %5, align 4, !tbaa !60
  %29 = shl i32 1, %28
  %30 = and i32 %27, %29
  %31 = icmp ne i32 %30, 0
  br i1 %31, label %46, label %32

32:                                               ; preds = %17
  %33 = getelementptr inbounds nuw %"class.cv::line_descriptor::BinaryDescriptorMatcher::BucketGroup", ptr %11, i32 0, i32 1
  %34 = load i32, ptr %8, align 4, !tbaa !60
  %35 = getelementptr inbounds nuw %"class.cv::line_descriptor::BinaryDescriptorMatcher::BucketGroup", ptr %11, i32 0, i32 1
  %36 = load i32, ptr %8, align 4, !tbaa !60
  %37 = add nsw i32 %36, 2
  %38 = sext i32 %37 to i64
  %39 = call noundef nonnull align 4 dereferenceable(4) ptr @_ZNSt6vectorIjSaIjEEixEm(ptr noundef nonnull align 8 dereferenceable(24) %35, i64 noundef %38) #3
  %40 = load i32, ptr %39, align 4, !tbaa !60
  call void @_ZN2cv15line_descriptor23BinaryDescriptorMatcher11BucketGroup12insert_valueERSt6vectorIjSaIjEEij(ptr noundef nonnull align 8 dereferenceable(32) %11, ptr noundef nonnull align 8 dereferenceable(24) %33, i32 noundef %34, i32 noundef %40)
  %41 = load i32, ptr %5, align 4, !tbaa !60
  %42 = shl i32 1, %41
  %43 = getelementptr inbounds nuw %"class.cv::line_descriptor::BinaryDescriptorMatcher::BucketGroup", ptr %11, i32 0, i32 0
  %44 = load i32, ptr %43, align 8, !tbaa !208
  %45 = or i32 %44, %42
  store i32 %45, ptr %43, align 8, !tbaa !208
  br label %46

46:                                               ; preds = %32, %17
  call void @llvm.lifetime.start.p0(i64 4, ptr %9) #3
  %47 = getelementptr inbounds nuw %"class.cv::line_descriptor::BinaryDescriptorMatcher::BucketGroup", ptr %11, i32 0, i32 0
  %48 = load i32, ptr %47, align 8, !tbaa !208
  %49 = call i32 @llvm.ctpop.i32(i32 %48)
  store i32 %49, ptr %9, align 4, !tbaa !60
  %50 = getelementptr inbounds nuw %"class.cv::line_descriptor::BinaryDescriptorMatcher::BucketGroup", ptr %11, i32 0, i32 1
  %51 = load i32, ptr %9, align 4, !tbaa !60
  %52 = add nsw i32 %51, 1
  %53 = getelementptr inbounds nuw %"class.cv::line_descriptor::BinaryDescriptorMatcher::BucketGroup", ptr %11, i32 0, i32 1
  %54 = load i32, ptr %8, align 4, !tbaa !60
  %55 = add nsw i32 2, %54
  %56 = add nsw i32 %55, 1
  %57 = sext i32 %56 to i64
  %58 = call noundef nonnull align 4 dereferenceable(4) ptr @_ZNSt6vectorIjSaIjEEixEm(ptr noundef nonnull align 8 dereferenceable(24) %53, i64 noundef %57) #3
  %59 = load i32, ptr %58, align 4, !tbaa !60
  %60 = add i32 %52, %59
  %61 = load i32, ptr %6, align 4, !tbaa !60
  call void @_ZN2cv15line_descriptor23BinaryDescriptorMatcher11BucketGroup12insert_valueERSt6vectorIjSaIjEEij(ptr noundef nonnull align 8 dereferenceable(32) %11, ptr noundef nonnull align 8 dereferenceable(24) %50, i32 noundef %60, i32 noundef %61)
  call void @llvm.lifetime.start.p0(i64 4, ptr %10) #3
  %62 = load i32, ptr %8, align 4, !tbaa !60
  %63 = add nsw i32 %62, 1
  store i32 %63, ptr %10, align 4, !tbaa !60
  br label %64

64:                                               ; preds = %78, %46
  %65 = load i32, ptr %10, align 4, !tbaa !60
  %66 = load i32, ptr %9, align 4, !tbaa !60
  %67 = add nsw i32 %66, 1
  %68 = icmp slt i32 %65, %67
  br i1 %68, label %70, label %69

69:                                               ; preds = %64
  call void @llvm.lifetime.end.p0(i64 4, ptr %10) #3
  br label %81

70:                                               ; preds = %64
  %71 = getelementptr inbounds nuw %"class.cv::line_descriptor::BinaryDescriptorMatcher::BucketGroup", ptr %11, i32 0, i32 1
  %72 = load i32, ptr %10, align 4, !tbaa !60
  %73 = add nsw i32 2, %72
  %74 = sext i32 %73 to i64
  %75 = call noundef nonnull align 4 dereferenceable(4) ptr @_ZNSt6vectorIjSaIjEEixEm(ptr noundef nonnull align 8 dereferenceable(24) %71, i64 noundef %74) #3
  %76 = load i32, ptr %75, align 4, !tbaa !60
  %77 = add i32 %76, 1
  store i32 %77, ptr %75, align 4, !tbaa !60
  br label %78

78:                                               ; preds = %70
  %79 = load i32, ptr %10, align 4, !tbaa !60
  %80 = add nsw i32 %79, 1
  store i32 %80, ptr %10, align 4, !tbaa !60
  br label %64, !llvm.loop !210

81:                                               ; preds = %69
  call void @llvm.lifetime.end.p0(i64 4, ptr %9) #3
  call void @llvm.lifetime.end.p0(i64 4, ptr %8) #3
  call void @llvm.lifetime.end.p0(i64 4, ptr %7) #3
  ret void
}