; Function Attrs: mustprogress uwtable
define void @_ZN2cv15line_descriptor23BinaryDescriptorMatcher11BucketGroup6insertEij(ptr noundef nonnull align 8 dereferenceable(32) %0, i32 noundef %1, i32 noundef %2) local_unnamed_addr #3 align 2 {
  %4 = getelementptr inbounds nuw i8, ptr %0, i64 8
  %5 = getelementptr inbounds nuw i8, ptr %0, i64 16
  %6 = load ptr, ptr %5, align 8, !tbaa !95
  %7 = load ptr, ptr %4, align 8, !tbaa !96
  %8 = icmp eq ptr %6, %7
  br i1 %8, label %9, label %10

9:                                                ; preds = %3
  tail call void @_ZN2cv15line_descriptor23BinaryDescriptorMatcher11BucketGroup10push_valueERSt6vectorIjSaIjEEj(ptr nonnull align 8 poison, ptr noundef nonnull align 8 dereferenceable(24) %4, i32 noundef 0)
  %.pre16.pre = load ptr, ptr %4, align 8, !tbaa !96
  br label %10

10:                                               ; preds = %9, %3
  %.pre16 = phi ptr [ %.pre16.pre, %9 ], [ %7, %3 ]
  %11 = shl nuw i32 1, %1
  %12 = add i32 %11, -1
  %13 = load i32, ptr %0, align 8, !tbaa !100
  %14 = and i32 %13, %12
  %15 = tail call range(i32 0, 33) i32 @llvm.ctpop.i32(i32 %14)
  %16 = and i32 %13, %11
  %.not = icmp eq i32 %16, 0
  %17 = zext nneg i32 %15 to i64
  br i1 %.not, label %18, label %._crit_edge18

18:                                               ; preds = %10
  %19 = getelementptr inbounds nuw i32, ptr %.pre16, i64 %17
  %20 = getelementptr inbounds nuw i8, ptr %19, i64 8
  %21 = load i32, ptr %20, align 4, !tbaa !30
  tail call void @_ZN2cv15line_descriptor23BinaryDescriptorMatcher11BucketGroup12insert_valueERSt6vectorIjSaIjEEij(ptr nonnull align 8 poison, ptr noundef nonnull align 8 dereferenceable(24) %4, i32 noundef %15, i32 noundef %21)
  %22 = load i32, ptr %0, align 8, !tbaa !100
  %23 = or i32 %22, %11
  store i32 %23, ptr %0, align 8, !tbaa !100
  %.pre = load ptr, ptr %4, align 8, !tbaa !96
  br label %._crit_edge18

._crit_edge18:                                    ; preds = %10, %18
  %24 = phi ptr [ %.pre, %18 ], [ %.pre16, %10 ]
  %25 = phi i32 [ %23, %18 ], [ %13, %10 ]
  %26 = tail call range(i32 0, 33) i32 @llvm.ctpop.i32(i32 %25)
  %27 = add nuw nsw i32 %26, 1
  %28 = getelementptr inbounds nuw i32, ptr %24, i64 %17
  %29 = getelementptr inbounds nuw i8, ptr %28, i64 12
  %30 = load i32, ptr %29, align 4, !tbaa !30
  %31 = add i32 %27, %30
  tail call void @_ZN2cv15line_descriptor23BinaryDescriptorMatcher11BucketGroup12insert_valueERSt6vectorIjSaIjEEij(ptr nonnull align 8 poison, ptr noundef nonnull align 8 dereferenceable(24) %4, i32 noundef %31, i32 noundef %2)
  %32 = icmp samesign ult i32 %15, %26
  br i1 %32, label %.lr.ph, label %._crit_edge

.lr.ph:                                           ; preds = %._crit_edge18
  %33 = load ptr, ptr %4, align 8, !tbaa !96
  %invariant.gep = getelementptr inbounds nuw i8, ptr %33, i64 12
  %wide.trip.count = zext nneg i32 %26 to i64
  br label %34

._crit_edge:                                      ; preds = %34, %._crit_edge18
  ret void

34:                                               ; preds = %.lr.ph, %34
  %indvars.iv = phi i64 [ %17, %.lr.ph ], [ %indvars.iv.next, %34 ]
  %indvars.iv.next = add nuw nsw i64 %indvars.iv, 1
  %gep = getelementptr inbounds nuw i32, ptr %invariant.gep, i64 %indvars.iv
  %35 = load i32, ptr %gep, align 4, !tbaa !30
  %36 = add i32 %35, 1
  store i32 %36, ptr %gep, align 4, !tbaa !30
  %exitcond.not = icmp eq i64 %indvars.iv.next, %wide.trip.count
  br i1 %exitcond.not, label %._crit_edge, label %34, !llvm.loop !104
}